target datalayout = "e-m:e-p270:32:32-p271:32:32-p272:64:64-i64:64-i128:128-f80:128-n8:16:32:64-S128"
target triple = "x86_64-unknown-linux-gnu"

%"class.std::set.0" = type { %"class.std::_Rb_tree.1" }
%"class.std::_Rb_tree.1" = type { %"struct.std::_Rb_tree<QuantLib::Observer *, QuantLib::Observer *, std::_Identity<QuantLib::Observer *>, std::less<QuantLib::Observer *>>::_Rb_tree_impl" }
%"struct.std::_Rb_tree<QuantLib::Observer *, QuantLib::Observer *, std::_Identity<QuantLib::Observer *>, std::less<QuantLib::Observer *>>::_Rb_tree_impl" = type { [8 x i8], %"struct.std::_Rb_tree_header" }
%"struct.std::_Rb_tree_header" = type { %"struct.std::_Rb_tree_node_base", i64 }
%"struct.std::_Rb_tree_node_base" = type { i32, ptr, ptr, ptr }
%"class.QuantLib::Date" = type { i64 }
%"class.boost::detail::shared_count" = type { ptr }
%"class.std::set" = type { %"class.std::_Rb_tree" }
%"class.std::_Rb_tree" = type { %"struct.std::_Rb_tree<boost::shared_ptr<QuantLib::Observable>, boost::shared_ptr<QuantLib::Observable>, std::_Identity<boost::shared_ptr<QuantLib::Observable>>, std::less<boost::shared_ptr<QuantLib::Observable>>>::_Rb_tree_impl" }
%"struct.std::_Rb_tree<boost::shared_ptr<QuantLib::Observable>, boost::shared_ptr<QuantLib::Observable>, std::_Identity<boost::shared_ptr<QuantLib::Observable>>, std::less<boost::shared_ptr<QuantLib::Observable>>>::_Rb_tree_impl" = type { [8 x i8], %"struct.std::_Rb_tree_header" }
%"class.QuantLib::Observable" = type { ptr, %"class.std::set.0" }
%"class.QuantLib::CrossCurrencyBasisSwapRateHelperBase" = type { %"class.QuantLib::RelativeDateBootstrapHelper", %"class.QuantLib::Period", i32, %"class.QuantLib::Calendar", i32, i8, %"class.boost::shared_ptr.20", %"class.boost::shared_ptr.20", %"class.QuantLib::Handle", i8, i8, %"class.std::vector", %"class.std::vector", %"class.QuantLib::RelinkableHandle" }
%"class.QuantLib::RelativeDateBootstrapHelper" = type { %"class.QuantLib::BootstrapHelper", %"class.QuantLib::Date" }
%"class.QuantLib::BootstrapHelper" = type { %"class.QuantLib::Observer", %"class.QuantLib::Observable", %"class.QuantLib::Handle.22", ptr, %"class.QuantLib::Date", %"class.QuantLib::Date", %"class.QuantLib::Date", %"class.QuantLib::Date", %"class.QuantLib::Date" }
%"class.QuantLib::Observer" = type { ptr, %"class.std::set" }
%"class.QuantLib::Handle.22" = type { %"class.boost::shared_ptr.23" }
%"class.boost::shared_ptr.23" = type { ptr, %"class.boost::detail::shared_count" }
%"class.QuantLib::Period" = type { i32, i32 }
%"class.QuantLib::Calendar" = type { %"class.boost::shared_ptr.17" }
%"class.boost::shared_ptr.17" = type { ptr, %"class.boost::detail::shared_count" }
%"class.boost::shared_ptr.20" = type { ptr, %"class.boost::detail::shared_count" }
%"class.QuantLib::Handle" = type { %"class.boost::shared_ptr.21" }
%"class.boost::shared_ptr.21" = type { ptr, %"class.boost::detail::shared_count" }
%"class.std::vector" = type { %"struct.std::_Vector_base" }
%"struct.std::_Vector_base" = type { %"struct.std::_Vector_base<boost::shared_ptr<QuantLib::CashFlow>, std::allocator<boost::shared_ptr<QuantLib::CashFlow>>>::_Vector_impl" }
%"struct.std::_Vector_base<boost::shared_ptr<QuantLib::CashFlow>, std::allocator<boost::shared_ptr<QuantLib::CashFlow>>>::_Vector_impl" = type { %"struct.std::_Vector_base<boost::shared_ptr<QuantLib::CashFlow>, std::allocator<boost::shared_ptr<QuantLib::CashFlow>>>::_Vector_impl_data" }
%"struct.std::_Vector_base<boost::shared_ptr<QuantLib::CashFlow>, std::allocator<boost::shared_ptr<QuantLib::CashFlow>>>::_Vector_impl_data" = type { ptr, ptr, ptr }
%"class.QuantLib::RelinkableHandle" = type { %"class.QuantLib::Handle" }
%"struct.std::pair.28" = type { double, double }

; Function Attrs: mustprogress nounwind uwtable
define linkonce_odr noundef nonnull align 8 dereferenceable(8) ptr @_ZNSt10__pair_getILm1EE10__move_getIddEEOT0_OSt4pairIT_S2_E(ptr noundef nonnull align 8 dereferenceable(16) %__pair) #1 comdat align 2 {
entry:
  %__pair.addr = alloca ptr, align 8
  store ptr %__pair, ptr %__pair.addr, align 8, !tbaa !3
  %0 = load ptr, ptr %__pair.addr, align 8, !tbaa !3
  %second = getelementptr inbounds nuw %"struct.std::pair.28", ptr %0, i32 0, i32 1
  ret ptr %second
}

; Function Attrs: mustprogress nounwind uwtable
define linkonce_odr noundef nonnull align 8 dereferenceable(8) ptr @_ZNSt10__pair_getILm0EE10__move_getIddEEOT_OSt4pairIS2_T0_E(ptr noundef nonnull align 8 dereferenceable(16) %__pair) #1 comdat align 2 {
entry:
  %__pair.addr = alloca ptr, align 8
  store ptr %__pair, ptr %__pair.addr, align 8, !tbaa !3
  %0 = load ptr, ptr %__pair.addr, align 8, !tbaa !3
  %first = getelementptr inbounds nuw %"struct.std::pair.28", ptr %0, i32 0, i32 0
  ret ptr %first
}

; Function Attrs: mustprogress nounwind uwtable
define linkonce_odr noundef nonnull align 8 dereferenceable(8) ptr @_ZSt3getILm1EddEONSt13tuple_elementIXT_ESt4pairIT0_T1_EE4typeEOS4_(ptr noundef nonnull align 8 dereferenceable(16) %__in) #1 comdat {
entry:
  %__in.addr = alloca ptr, align 8
  store ptr %__in, ptr %__in.addr, align 8, !tbaa !3
  %0 = load ptr, ptr %__in.addr, align 8, !tbaa !3
  %call = call noundef nonnull align 8 dereferenceable(8) ptr @_ZNSt10__pair_getILm1EE10__move_getIddEEOT0_OSt4pairIT_S2_E(ptr noundef nonnull align 8 dereferenceable(16) %0) #12
  ret ptr %call
}

; Function Attrs: mustprogress nounwind uwtable
define linkonce_odr noundef nonnull align 8 dereferenceable(8) ptr @_ZSt3getILm0EddEONSt13tuple_elementIXT_ESt4pairIT0_T1_EE4typeEOS4_(ptr noundef nonnull align 8 dereferenceable(16) %__in) #1 comdat {
entry:
  %__in.addr = alloca ptr, align 8
  store ptr %__in, ptr %__in.addr, align 8, !tbaa !3
  %0 = load ptr, ptr %__in.addr, align 8, !tbaa !3
  %call = call noundef nonnull align 8 dereferenceable(8) ptr @_ZNSt10__pair_getILm0EE10__move_getIddEEOT_OSt4pairIS2_T0_E(ptr noundef nonnull align 8 dereferenceable(16) %0) #12
  ret ptr %call
}

; Function Attrs: mustprogress uwtable
define noundef double @_ZNK8QuantLib45ConstNotionalCrossCurrencyBasisSwapRateHelper12impliedQuoteEv(ptr noundef nonnull align 8 dereferenceable(344) %this) unnamed_addr #2 align 2 {
entry:
  %this.addr = alloca ptr, align 8
  %0 = alloca %"struct.std::pair.28", align 8
  %npvBaseCcy = alloca ptr, align 8
  %bpsBaseCcy = alloca ptr, align 8
  %1 = alloca %"struct.std::pair.28", align 8
  %npvQuoteCcy = alloca ptr, align 8
  %bpsQuoteCcy = alloca ptr, align 8
  %bps = alloca double, align 8
  store ptr %this, ptr %this.addr, align 8, !tbaa !3
  %this1 = load ptr, ptr %this.addr, align 8
  call void @llvm.lifetime.start.p0(i64 16, ptr %0) #12
  %baseCcyIborLeg_ = getelementptr inbounds nuw %"class.QuantLib::CrossCurrencyBasisSwapRateHelperBase", ptr %this1, i32 0, i32 11
  %call = call noundef nonnull align 8 dereferenceable(16) ptr @_ZNK8QuantLib36CrossCurrencyBasisSwapRateHelperBase24baseCcyLegDiscountHandleEv(ptr noundef nonnull align 8 dereferenceable(344) %this1)
  %call2 = call { double, double } @_ZN8QuantLib12_GLOBAL__N_122npvbpsConstNotionalLegERKSt6vectorIN5boost10shared_ptrINS_8CashFlowEEESaIS5_EERKNS_6HandleINS_18YieldTermStructureEEE(ptr noundef nonnull align 8 dereferenceable(24) %baseCcyIborLeg_, ptr noundef nonnull align 8 dereferenceable(16) %call)
  %2 = getelementptr inbounds nuw { double, double }, ptr %0, i32 0, i32 0
  %3 = extractvalue { double, double } %call2, 0
  store double %3, ptr %2, align 8
  %4 = getelementptr inbounds nuw { double, double }, ptr %0, i32 0, i32 1
  %5 = extractvalue { double, double } %call2, 1
  store double %5, ptr %4, align 8
  call void @llvm.lifetime.start.p0(i64 8, ptr %npvBaseCcy) #12
  %call3 = call noundef nonnull align 8 dereferenceable(8) ptr @_ZSt3getILm0EddEONSt13tuple_elementIXT_ESt4pairIT0_T1_EE4typeEOS4_(ptr noundef nonnull align 8 dereferenceable(16) %0) #12
  store ptr %call3, ptr %npvBaseCcy, align 8, !tbaa !3
  call void @llvm.lifetime.start.p0(i64 8, ptr %bpsBaseCcy) #12
  %call4 = call noundef nonnull align 8 dereferenceable(8) ptr @_ZSt3getILm1EddEONSt13tuple_elementIXT_ESt4pairIT0_T1_EE4typeEOS4_(ptr noundef nonnull align 8 dereferenceable(16) %0) #12
  store ptr %call4, ptr %bpsBaseCcy, align 8, !tbaa !3
  call void @llvm.lifetime.start.p0(i64 16, ptr %1) #12
  %quoteCcyIborLeg_ = getelementptr inbounds nuw %"class.QuantLib::CrossCurrencyBasisSwapRateHelperBase", ptr %this1, i32 0, i32 12
  %call5 = call noundef nonnull align 8 dereferenceable(16) ptr @_ZNK8QuantLib36CrossCurrencyBasisSwapRateHelperBase25quoteCcyLegDiscountHandleEv(ptr noundef nonnull align 8 dereferenceable(344) %this1)
  %call6 = call { double, double } @_ZN8QuantLib12_GLOBAL__N_122npvbpsConstNotionalLegERKSt6vectorIN5boost10shared_ptrINS_8CashFlowEEESaIS5_EERKNS_6HandleINS_18YieldTermStructureEEE(ptr noundef nonnull align 8 dereferenceable(24) %quoteCcyIborLeg_, ptr noundef nonnull align 8 dereferenceable(16) %call5)
  %6 = getelementptr inbounds nuw { double, double }, ptr %1, i32 0, i32 0
  %7 = extractvalue { double, double } %call6, 0
  store double %7, ptr %6, align 8
  %8 = getelementptr inbounds nuw { double, double }, ptr %1, i32 0, i32 1
  %9 = extractvalue { double, double } %call6, 1
  store double %9, ptr %8, align 8
  call void @llvm.lifetime.start.p0(i64 8, ptr %npvQuoteCcy) #12
  %call7 = call noundef nonnull align 8 dereferenceable(8) ptr @_ZSt3getILm0EddEONSt13tuple_elementIXT_ESt4pairIT0_T1_EE4typeEOS4_(ptr noundef nonnull align 8 dereferenceable(16) %1) #12
  store ptr %call7, ptr %npvQuoteCcy, align 8, !tbaa !3
  call void @llvm.lifetime.start.p0(i64 8, ptr %bpsQuoteCcy) #12
  %call8 = call noundef nonnull align 8 dereferenceable(8) ptr @_ZSt3getILm1EddEONSt13tuple_elementIXT_ESt4pairIT0_T1_EE4typeEOS4_(ptr noundef nonnull align 8 dereferenceable(16) %1) #12
  store ptr %call8, ptr %bpsQuoteCcy, align 8, !tbaa !3
  call void @llvm.lifetime.start.p0(i64 8, ptr %bps) #12
  %isBasisOnFxBaseCurrencyLeg_ = getelementptr inbounds nuw %"class.QuantLib::CrossCurrencyBasisSwapRateHelperBase", ptr %this1, i32 0, i32 10
  %10 = load i8, ptr %isBasisOnFxBaseCurrencyLeg_, align 1, !tbaa !62, !range !58, !noundef !59
  %loadedv = trunc i8 %10 to i1
  br i1 %loadedv, label %cond.true, label %cond.false

cond.true:                                        ; preds = %entry
  %11 = load ptr, ptr %bpsBaseCcy, align 8, !tbaa !3
  %12 = load double, ptr %11, align 8, !tbaa !71
  %fneg = fneg double %12
  br label %cond.end

cond.false:                                       ; preds = %entry
  %13 = load ptr, ptr %bpsQuoteCcy, align 8, !tbaa !3
  %14 = load double, ptr %13, align 8, !tbaa !71
  br label %cond.end

cond.end:                                         ; preds = %cond.false, %cond.true
  %cond = phi double [ %fneg, %cond.true ], [ %14, %cond.false ]
  store double %cond, ptr %bps, align 8, !tbaa !71
  %15 = load ptr, ptr %npvQuoteCcy, align 8, !tbaa !3
  %16 = load double, ptr %15, align 8, !tbaa !71
  %17 = load ptr, ptr %npvBaseCcy, align 8, !tbaa !3
  %18 = load double, ptr %17, align 8, !tbaa !71
  %sub = fsub double %16, %18
  %fneg9 = fneg double %sub
  %19 = load double, ptr %bps, align 8, !tbaa !71
  %div = fdiv double %fneg9, %19
  call void @llvm.lifetime.end.p0(i64 8, ptr %bps) #12
  call void @llvm.lifetime.end.p0(i64 8, ptr %bpsQuoteCcy) #12
  call void @llvm.lifetime.end.p0(i64 8, ptr %npvQuoteCcy) #12
  call void @llvm.lifetime.end.p0(i64 16, ptr %1) #12
  call void @llvm.lifetime.end.p0(i64 8, ptr %bpsBaseCcy) #12
  call void @llvm.lifetime.end.p0(i64 8, ptr %npvBaseCcy) #12
  call void @llvm.lifetime.end.p0(i64 16, ptr %0) #12
  ret double %div
}