; Function Attrs: mustprogress uwtable
define noundef double @_ZNK8QuantLib45ConstNotionalCrossCurrencyBasisSwapRateHelper12impliedQuoteEv(ptr noundef nonnull align 8 dereferenceable(344) %this) unnamed_addr #7 align 2 {
entry:
  %baseCcyIborLeg_ = getelementptr inbounds nuw i8, ptr %this, i64 280
  %call = tail call noundef nonnull align 8 dereferenceable(16) ptr @_ZNK8QuantLib36CrossCurrencyBasisSwapRateHelperBase24baseCcyLegDiscountHandleEv(ptr noundef nonnull align 8 dereferenceable(344) %this)
  %call2 = tail call fastcc { double, double } @_ZN8QuantLib12_GLOBAL__N_122npvbpsConstNotionalLegERKSt6vectorIN5boost10shared_ptrINS_8CashFlowEEESaIS5_EERKNS_6HandleINS_18YieldTermStructureEEE(ptr noundef nonnull align 8 dereferenceable(24) %baseCcyIborLeg_, ptr noundef nonnull align 8 dereferenceable(16) %call)
  %0 = extractvalue { double, double } %call2, 0
  %1 = extractvalue { double, double } %call2, 1
  %quoteCcyIborLeg_ = getelementptr inbounds nuw i8, ptr %this, i64 304
  %call5 = tail call noundef nonnull align 8 dereferenceable(16) ptr @_ZNK8QuantLib36CrossCurrencyBasisSwapRateHelperBase25quoteCcyLegDiscountHandleEv(ptr noundef nonnull align 8 dereferenceable(344) %this)
  %call6 = tail call fastcc { double, double } @_ZN8QuantLib12_GLOBAL__N_122npvbpsConstNotionalLegERKSt6vectorIN5boost10shared_ptrINS_8CashFlowEEESaIS5_EERKNS_6HandleINS_18YieldTermStructureEEE(ptr noundef nonnull align 8 dereferenceable(24) %quoteCcyIborLeg_, ptr noundef nonnull align 8 dereferenceable(16) %call5)
  %2 = extractvalue { double, double } %call6, 0
  %3 = extractvalue { double, double } %call6, 1
  %isBasisOnFxBaseCurrencyLeg_ = getelementptr inbounds nuw i8, ptr %this, i64 273
  %4 = load i8, ptr %isBasisOnFxBaseCurrencyLeg_, align 1, !tbaa !73, !range !26, !noundef !27
  %loadedv = trunc nuw i8 %4 to i1
  %fneg = fneg double %1
  %cond = select i1 %loadedv, double %fneg, double %3
  %sub = fsub double %2, %0
  %fneg9 = fneg double %sub
  %div = fdiv double %fneg9, %cond
  ret double %div
}